target datalayout = "e-m:e-p270:32:32-p271:32:32-p272:64:64-i64:64-i128:128-f80:128-n8:16:32:64-S128"
target triple = "x86_64-pc-linux-gnu"

%struct.PgStat_LocalState = type { ptr, ptr, ptr, %struct.PgStat_Snapshot }
%struct.PgStat_Snapshot = type { i32, i64, [13 x i8], %struct.PgStat_ArchiverStats, %struct.PgStat_BgWriterStats, %struct.PgStat_CheckpointerStats, %struct.PgStat_IO, [8 x %struct.PgStat_SLRUStats], %struct.PgStat_WalStats, [129 x i8], [129 x ptr], ptr, ptr }
%struct.PgStat_ArchiverStats = type { i64, [41 x i8], i64, i64, [41 x i8], i64, i64 }
%struct.PgStat_BgWriterStats = type { i64, i64, i64, i64 }
%struct.PgStat_CheckpointerStats = type { i64, i64, i64, i64, i64, i64, i64, i64, i64, i64, i64 }
%struct.PgStat_IO = type { i64, [17 x %struct.PgStat_BktypeIO] }
%struct.PgStat_BktypeIO = type { [3 x [5 x [8 x i64]]], [3 x [5 x [8 x i64]]], [3 x [5 x [8 x i64]]] }
%struct.PgStat_SLRUStats = type { i64, i64, i64, i64, i64, i64, i64, i64 }
%struct.PgStat_WalStats = type { i64, i64, i64, i64, i64, i64, i64, i64, i64 }
%struct.PgStat_ShmemControl = type { ptr, i64, i8, %struct.pg_atomic_uint64, %struct.PgStatShared_Archiver, %struct.PgStatShared_BgWriter, %struct.PgStatShared_Checkpointer, %struct.PgStatShared_IO, %struct.PgStatShared_SLRU, %struct.PgStatShared_Wal, [129 x ptr] }
%struct.pg_atomic_uint64 = type { i64 }
%struct.PgStatShared_Archiver = type { %struct.LWLock, i32, %struct.PgStat_ArchiverStats, %struct.PgStat_ArchiverStats }
%struct.LWLock = type { i16, %struct.pg_atomic_uint32, %struct.proclist_head }
%struct.pg_atomic_uint32 = type { i32 }
%struct.proclist_head = type { i32, i32 }
%struct.PgStatShared_BgWriter = type { %struct.LWLock, i32, %struct.PgStat_BgWriterStats, %struct.PgStat_BgWriterStats }
%struct.PgStatShared_Checkpointer = type { %struct.LWLock, i32, %struct.PgStat_CheckpointerStats, %struct.PgStat_CheckpointerStats }
%struct.PgStatShared_IO = type { [17 x %struct.LWLock], %struct.PgStat_IO }
%struct.PgStatShared_SLRU = type { %struct.LWLock, [8 x %struct.PgStat_SLRUStats] }
%struct.PgStatShared_Wal = type { %struct.LWLock, %struct.PgStat_WalStats }

@pgStatLocal = external global %struct.PgStat_LocalState, align 8

; Function Attrs: nounwind uwtable
define dso_local void @pgstat_io_snapshot_cb() #0 {
  %1 = alloca i32, align 4
  %2 = alloca ptr, align 8
  %3 = alloca ptr, align 8
  %4 = alloca ptr, align 8
  call void @llvm.lifetime.start.p0(i64 4, ptr %1) #8
  store i32 0, ptr %1, align 4
  br label %5

5:                                                ; preds = %40, %0
  %6 = load i32, ptr %1, align 4
  %7 = icmp slt i32 %6, 17
  br i1 %7, label %9, label %8

8:                                                ; preds = %5
  call void @llvm.lifetime.end.p0(i64 4, ptr %1) #8
  br label %43

9:                                                ; preds = %5
  call void @llvm.lifetime.start.p0(i64 8, ptr %2) #8
  %10 = load ptr, ptr @pgStatLocal, align 8
  %11 = getelementptr inbounds nuw %struct.PgStat_ShmemControl, ptr %10, i32 0, i32 7
  %12 = getelementptr inbounds nuw %struct.PgStatShared_IO, ptr %11, i32 0, i32 0
  %13 = load i32, ptr %1, align 4
  %14 = sext i32 %13 to i64
  %15 = getelementptr inbounds [17 x %struct.LWLock], ptr %12, i64 0, i64 %14
  store ptr %15, ptr %2, align 8
  call void @llvm.lifetime.start.p0(i64 8, ptr %3) #8
  %16 = load ptr, ptr @pgStatLocal, align 8
  %17 = getelementptr inbounds nuw %struct.PgStat_ShmemControl, ptr %16, i32 0, i32 7
  %18 = getelementptr inbounds nuw %struct.PgStatShared_IO, ptr %17, i32 0, i32 1
  %19 = getelementptr inbounds nuw %struct.PgStat_IO, ptr %18, i32 0, i32 1
  %20 = load i32, ptr %1, align 4
  %21 = sext i32 %20 to i64
  %22 = getelementptr inbounds [17 x %struct.PgStat_BktypeIO], ptr %19, i64 0, i64 %21
  store ptr %22, ptr %3, align 8
  call void @llvm.lifetime.start.p0(i64 8, ptr %4) #8
  %23 = load i32, ptr %1, align 4
  %24 = sext i32 %23 to i64
  %25 = getelementptr inbounds [17 x %struct.PgStat_BktypeIO], ptr getelementptr inbounds nuw (%struct.PgStat_IO, ptr getelementptr inbounds nuw (%struct.PgStat_Snapshot, ptr getelementptr inbounds nuw (%struct.PgStat_LocalState, ptr @pgStatLocal, i32 0, i32 3), i32 0, i32 6), i32 0, i32 1), i64 0, i64 %24
  store ptr %25, ptr %4, align 8
  %26 = load ptr, ptr %2, align 8
  %27 = call zeroext i1 @LWLockAcquire(ptr noundef %26, i32 noundef 1)
  %28 = load i32, ptr %1, align 4
  %29 = icmp eq i32 %28, 0
  br i1 %29, label %30, label %36

30:                                               ; preds = %9
  %31 = load ptr, ptr @pgStatLocal, align 8
  %32 = getelementptr inbounds nuw %struct.PgStat_ShmemControl, ptr %31, i32 0, i32 7
  %33 = getelementptr inbounds nuw %struct.PgStatShared_IO, ptr %32, i32 0, i32 1
  %34 = getelementptr inbounds nuw %struct.PgStat_IO, ptr %33, i32 0, i32 0
  %35 = load i64, ptr %34, align 8
  store i64 %35, ptr getelementptr inbounds nuw (%struct.PgStat_Snapshot, ptr getelementptr inbounds nuw (%struct.PgStat_LocalState, ptr @pgStatLocal, i32 0, i32 3), i32 0, i32 6), align 8
  br label %36

36:                                               ; preds = %30, %9
  %37 = load ptr, ptr %4, align 8
  %38 = load ptr, ptr %3, align 8
  call void @llvm.memcpy.p0.p0.i64(ptr align 8 %37, ptr align 8 %38, i64 2880, i1 false)
  %39 = load ptr, ptr %2, align 8
  call void @LWLockRelease(ptr noundef %39)
  call void @llvm.lifetime.end.p0(i64 8, ptr %4) #8
  call void @llvm.lifetime.end.p0(i64 8, ptr %3) #8
  call void @llvm.lifetime.end.p0(i64 8, ptr %2) #8
  br label %40

40:                                               ; preds = %36
  %41 = load i32, ptr %1, align 4
  %42 = add i32 %41, 1
  store i32 %42, ptr %1, align 4
  br label %5, !llvm.loop !15

43:                                               ; preds = %8
  ret void
}