; Function Attrs: nounwind uwtable
define dso_local void @pgstat_io_snapshot_cb() local_unnamed_addr #3 {
  br label %2

1:                                                ; preds = %15
  ret void

2:                                                ; preds = %0, %15
  %indvars.iv = phi i64 [ 0, %0 ], [ %indvars.iv.next, %15 ]
  %3 = load ptr, ptr @pgStatLocal, align 8
  %4 = getelementptr inbounds nuw i8, ptr %3, i64 616
  %5 = getelementptr inbounds nuw [17 x %struct.LWLock], ptr %4, i64 0, i64 %indvars.iv
  %6 = getelementptr inbounds nuw i8, ptr %3, i64 896
  %7 = getelementptr inbounds nuw [17 x %struct.PgStat_BktypeIO], ptr %6, i64 0, i64 %indvars.iv
  %8 = getelementptr inbounds nuw [17 x %struct.PgStat_BktypeIO], ptr getelementptr inbounds nuw (i8, ptr @pgStatLocal, i64 320), i64 0, i64 %indvars.iv
  %9 = tail call zeroext i1 @LWLockAcquire(ptr noundef nonnull %5, i32 noundef 1) #11
  %10 = icmp eq i64 %indvars.iv, 0
  br i1 %10, label %11, label %15

11:                                               ; preds = %2
  %12 = load ptr, ptr @pgStatLocal, align 8
  %13 = getelementptr inbounds nuw i8, ptr %12, i64 888
  %14 = load i64, ptr %13, align 8
  store i64 %14, ptr getelementptr inbounds nuw (i8, ptr @pgStatLocal, i64 312), align 8
  br label %15

15:                                               ; preds = %11, %2
  tail call void @llvm.memcpy.p0.p0.i64(ptr noundef nonnull align 8 dereferenceable(2880) %8, ptr noundef nonnull align 8 dereferenceable(2880) %7, i64 2880, i1 false)
  tail call void @LWLockRelease(ptr noundef nonnull %5) #11
  %indvars.iv.next = add nuw nsw i64 %indvars.iv, 1
  %exitcond.not = icmp eq i64 %indvars.iv.next, 17
  br i1 %exitcond.not, label %1, label %2, !llvm.loop !15
}